; Function Attrs: mustprogress nounwind uwtable
define void @deleteConstraint(ptr noundef %0) local_unnamed_addr #7 {
  %2 = icmp eq ptr %0, null
  br i1 %2, label %4, label %3

3:                                                ; preds = %1
  tail call void @_ZN10ConstraintD1Ev(ptr noundef nonnull align 8 dereferenceable(42) %0) #23
  tail call void @_ZdlPvm(ptr noundef nonnull %0, i64 noundef 48) #22
  br label %4

4:                                                ; preds = %3, %1
  ret void
}